(lp0
(S'cppflags'
p1
ccopy_reg
_reconstructor
p2
(cino.utils
SpaceList
p3
c__builtin__
list
p4
(lp5
S'-mmcu=atmega328p'
p6
aS'-DF_CPU=16000000L'
p7
aS'-DARDUINO=105'
p8
aS'-I/Applications/Arduino.app/Contents/Resources/Java/hardware/arduino/cores/arduino'
p9
aS'-ffunction-sections'
p10
aS'-fdata-sections'
p11
aS'-g'
p12
aS'-Os'
p13
aS'-w'
p14
aS'-I/Applications/Arduino.app/Contents/Resources/Java/hardware/arduino/variants/standard'
p15
aS'-I/Applications/Arduino.app/Contents/Resources/Java/libraries/Servo'
p16
aS'-I/Applications/Arduino.app/Contents/Resources/Java/hardware/arduino/cores/arduino'
p17
aS'-I/Applications/Arduino.app/Contents/Resources/Java/hardware/arduino/cores/arduino/avr-libc'
p18
atp19
Rp20
tp21
a(S'cxx'
p22
S'/Applications/Arduino.app/Contents/Resources/Java/hardware/tools/avr/bin/avr-g++'
p23
tp24
a(S'build_dir'
p25
S'.build/uno'
p26
tp27
a(S'avrdude'
p28
S'/Applications/Arduino.app/Contents/Resources/Java/hardware/tools/avr/bin/avrdude'
p29
tp30
a(S'ar'
p31
S'/Applications/Arduino.app/Contents/Resources/Java/hardware/tools/avr/bin/avr-ar'
p32
tp33
a(S'names'
p34
(dp35
S'cpp'
p36
S'%s.cpp'
p37
sS'obj'
p38
S'%s.o'
p39
sS'lib'
p40
S'lib%s.a'
p41
sS'deps'
p42
S'%s.d'
p43
stp44
a(S'ldflags'
p45
g2
(g3
g4
(lp46
g6
aS'-Wl,-Os'
p47
aS'-Wl,--gc-sections'
p48
atp49
Rp50
tp51
a(S'arduino_lib_version'
p52
g2
(cino.environment
Version
p53
c__builtin__
tuple
p54
(I1
I0
I5
tp55
tp56
Rp57
tp58
a(S'objcopy'
p59
S'/Applications/Arduino.app/Contents/Resources/Java/hardware/tools/avr/bin/avr-objcopy'
p60
tp61
a(S'board_models'
p62
cino.environment
BoardModels
p63
((lp64
(lp65
S'uno'
p66
a(dp67
S'bootloader'
p68
(dp69
S'extended_fuses'
p70
S'0x05'
p71
sS'high_fuses'
p72
S'0xde'
p73
sS'low_fuses'
p74
S'0xff'
p75
sS'lock_bits'
p76
S'0x0F'
p77
sS'file'
p78
S'optiboot_atmega328.hex'
p79
sS'path'
p80
S'optiboot'
p81
sS'unlock_bits'
p82
S'0x3F'
p83
ssS'upload'
p84
(dp85
S'speed'
p86
S'115200'
p87
sS'maximum_size'
p88
S'32256'
p89
sS'protocol'
p90
S'arduino'
p91
ssS'name'
p92
S'Arduino Uno'
p93
sS'build'
p94
(dp95
S'core'
p96
S'arduino'
p97
sS'mcu'
p98
S'atmega328p'
p99
sS'f_cpu'
p100
S'16000000L'
p101
sS'variant'
p102
S'standard'
p103
ssaa(lp104
S'atmega328'
p105
a(dp106
S'bootloader'
p107
(dp108
S'extended_fuses'
p109
S'0x05'
p110
sS'high_fuses'
p111
S'0xDA'
p112
sS'low_fuses'
p113
S'0xFF'
p114
sS'lock_bits'
p115
S'0x0F'
p116
sS'file'
p117
S'ATmegaBOOT_168_atmega328.hex'
p118
sS'path'
p119
S'atmega'
p120
sS'unlock_bits'
p121
S'0x3F'
p122
ssS'upload'
p123
(dp124
S'speed'
p125
S'57600'
p126
sS'maximum_size'
p127
S'30720'
p128
sS'protocol'
p129
S'arduino'
p130
ssS'name'
p131
S'Arduino Duemilanove w/ ATmega328'
p132
sS'build'
p133
(dp134
S'core'
p135
S'arduino'
p136
sS'mcu'
p137
S'atmega328p'
p138
sS'f_cpu'
p139
S'16000000L'
p140
sS'variant'
p141
S'standard'
p142
ssaa(lp143
S'diecimila'
p144
a(dp145
S'bootloader'
p146
(dp147
S'extended_fuses'
p148
S'0x00'
p149
sS'high_fuses'
p150
S'0xdd'
p151
sS'low_fuses'
p152
S'0xff'
p153
sS'lock_bits'
p154
S'0x0F'
p155
sS'file'
p156
S'ATmegaBOOT_168_diecimila.hex'
p157
sS'path'
p158
S'atmega'
p159
sS'unlock_bits'
p160
S'0x3F'
p161
ssS'upload'
p162
(dp163
S'speed'
p164
S'19200'
p165
sS'maximum_size'
p166
S'14336'
p167
sS'protocol'
p168
S'arduino'
p169
ssS'name'
p170
S'Arduino Diecimila or Duemilanove w/ ATmega168'
p171
sS'build'
p172
(dp173
S'core'
p174
S'arduino'
p175
sS'mcu'
p176
S'atmega168'
p177
sS'f_cpu'
p178
S'16000000L'
p179
sS'variant'
p180
S'standard'
p181
ssaa(lp182
S'nano328'
p183
a(dp184
S'bootloader'
p185
(dp186
S'extended_fuses'
p187
S'0x05'
p188
sS'high_fuses'
p189
S'0xDA'
p190
sS'low_fuses'
p191
S'0xFF'
p192
sS'lock_bits'
p193
S'0x0F'
p194
sS'file'
p195
S'ATmegaBOOT_168_atmega328.hex'
p196
sS'path'
p197
S'atmega'
p198
sS'unlock_bits'
p199
S'0x3F'
p200
ssS'upload'
p201
(dp202
S'speed'
p203
S'57600'
p204
sS'maximum_size'
p205
S'30720'
p206
sS'protocol'
p207
S'arduino'
p208
ssS'name'
p209
S'Arduino Nano w/ ATmega328'
p210
sS'build'
p211
(dp212
S'core'
p213
S'arduino'
p214
sS'mcu'
p215
S'atmega328p'
p216
sS'f_cpu'
p217
S'16000000L'
p218
sS'variant'
p219
S'eightanaloginputs'
p220
ssaa(lp221
S'nano'
p222
a(dp223
S'bootloader'
p224
(dp225
S'extended_fuses'
p226
S'0x00'
p227
sS'high_fuses'
p228
S'0xdd'
p229
sS'low_fuses'
p230
S'0xff'
p231
sS'lock_bits'
p232
S'0x0F'
p233
sS'file'
p234
S'ATmegaBOOT_168_diecimila.hex'
p235
sS'path'
p236
S'atmega'
p237
sS'unlock_bits'
p238
S'0x3F'
p239
ssS'upload'
p240
(dp241
S'speed'
p242
S'19200'
p243
sS'maximum_size'
p244
S'14336'
p245
sS'protocol'
p246
S'arduino'
p247
ssS'name'
p248
S'Arduino Nano w/ ATmega168'
p249
sS'build'
p250
(dp251
S'core'
p252
S'arduino'
p253
sS'mcu'
p254
S'atmega168'
p255
sS'f_cpu'
p256
S'16000000L'
p257
sS'variant'
p258
S'eightanaloginputs'
p259
ssaa(lp260
S'mega2560'
p261
a(dp262
S'bootloader'
p263
(dp264
S'extended_fuses'
p265
S'0xFD'
p266
sS'high_fuses'
p267
S'0xD8'
p268
sS'low_fuses'
p269
S'0xFF'
p270
sS'lock_bits'
p271
S'0x0F'
p272
sS'file'
p273
S'stk500boot_v2_mega2560.hex'
p274
sS'path'
p275
S'stk500v2'
p276
sS'unlock_bits'
p277
S'0x3F'
p278
ssS'upload'
p279
(dp280
S'speed'
p281
S'115200'
p282
sS'maximum_size'
p283
S'258048'
p284
sS'protocol'
p285
S'wiring'
p286
ssS'name'
p287
S'Arduino Mega 2560 or Mega ADK'
p288
sS'build'
p289
(dp290
S'core'
p291
S'arduino'
p292
sS'mcu'
p293
S'atmega2560'
p294
sS'f_cpu'
p295
S'16000000L'
p296
sS'variant'
p297
S'mega'
p298
ssaa(lp299
S'mega'
p300
a(dp301
S'bootloader'
p302
(dp303
S'extended_fuses'
p304
S'0xF5'
p305
sS'high_fuses'
p306
S'0xDA'
p307
sS'low_fuses'
p308
S'0xFF'
p309
sS'lock_bits'
p310
S'0x0F'
p311
sS'file'
p312
S'ATmegaBOOT_168_atmega1280.hex'
p313
sS'path'
p314
S'atmega'
p315
sS'unlock_bits'
p316
S'0x3F'
p317
ssS'upload'
p318
(dp319
S'speed'
p320
S'57600'
p321
sS'maximum_size'
p322
S'126976'
p323
sS'protocol'
p324
S'arduino'
p325
ssS'name'
p326
S'Arduino Mega (ATmega1280)'
p327
sS'build'
p328
(dp329
S'core'
p330
S'arduino'
p331
sS'mcu'
p332
S'atmega1280'
p333
sS'f_cpu'
p334
S'16000000L'
p335
sS'variant'
p336
S'mega'
p337
ssaa(lp338
S'leonardo'
p339
a(dp340
S'bootloader'
p341
(dp342
S'extended_fuses'
p343
S'0xcb'
p344
sS'high_fuses'
p345
S'0xd8'
p346
sS'low_fuses'
p347
S'0xff'
p348
sS'lock_bits'
p349
S'0x2F'
p350
sS'file'
p351
S'Caterina-Leonardo.hex'
p352
sS'path'
p353
S'caterina'
p354
sS'unlock_bits'
p355
S'0x3F'
p356
ssS'upload'
p357
(dp358
S'speed'
p359
S'57600'
p360
sS'maximum_size'
p361
S'28672'
p362
sS'protocol'
p363
S'avr109'
p364
sS'disable_flushing'
p365
S'true'
p366
ssS'name'
p367
S'Arduino Leonardo'
p368
sS'build'
p369
(dp370
S'core'
p371
S'arduino'
p372
sS'f_cpu'
p373
S'16000000L'
p374
sS'vid'
p375
S'0x2341'
p376
sS'pid'
p377
S'0x8036'
p378
sS'variant'
p379
S'leonardo'
p380
sS'mcu'
p381
S'atmega32u4'
p382
ssaa(lp383
S'esplora'
p384
a(dp385
S'bootloader'
p386
(dp387
S'extended_fuses'
p388
S'0xcb'
p389
sS'high_fuses'
p390
S'0xd8'
p391
sS'low_fuses'
p392
S'0xff'
p393
sS'lock_bits'
p394
S'0x2F'
p395
sS'file'
p396
S'Caterina-Esplora.hex'
p397
sS'path'
p398
S'caterina'
p399
sS'unlock_bits'
p400
S'0x3F'
p401
ssS'upload'
p402
(dp403
S'speed'
p404
S'57600'
p405
sS'maximum_size'
p406
S'28672'
p407
sS'protocol'
p408
S'avr109'
p409
sS'disable_flushing'
p410
S'true'
p411
ssS'name'
p412
S'Arduino Esplora'
p413
sS'build'
p414
(dp415
S'core'
p416
S'arduino'
p417
sS'f_cpu'
p418
S'16000000L'
p419
sS'vid'
p420
S'0x2341'
p421
sS'pid'
p422
S'0x803C'
p423
sS'variant'
p424
S'leonardo'
p425
sS'mcu'
p426
S'atmega32u4'
p427
ssaa(lp428
S'micro'
p429
a(dp430
S'bootloader'
p431
(dp432
S'extended_fuses'
p433
S'0xcb'
p434
sS'high_fuses'
p435
S'0xd8'
p436
sS'low_fuses'
p437
S'0xff'
p438
sS'lock_bits'
p439
S'0x2F'
p440
sS'file'
p441
S'Caterina-Micro.hex'
p442
sS'path'
p443
S'caterina'
p444
sS'unlock_bits'
p445
S'0x3F'
p446
ssS'upload'
p447
(dp448
S'speed'
p449
S'57600'
p450
sS'maximum_size'
p451
S'28672'
p452
sS'protocol'
p453
S'avr109'
p454
sS'disable_flushing'
p455
S'true'
p456
ssS'name'
p457
S'Arduino Micro'
p458
sS'build'
p459
(dp460
S'core'
p461
S'arduino'
p462
sS'f_cpu'
p463
S'16000000L'
p464
sS'vid'
p465
S'0x2341'
p466
sS'pid'
p467
S'0x8037'
p468
sS'variant'
p469
S'micro'
p470
sS'mcu'
p471
S'atmega32u4'
p472
ssaa(lp473
S'mini328'
p474
a(dp475
S'bootloader'
p476
(dp477
S'extended_fuses'
p478
S'0x05'
p479
sS'high_fuses'
p480
S'0xd8'
p481
sS'low_fuses'
p482
S'0xff'
p483
sS'lock_bits'
p484
S'0x0F'
p485
sS'file'
p486
S'optiboot_atmega328-Mini.hex'
p487
sS'path'
p488
S'optiboot'
p489
sS'unlock_bits'
p490
S'0x3F'
p491
ssS'upload'
p492
(dp493
S'speed'
p494
S'115200'
p495
sS'maximum_size'
p496
S'28672'
p497
sS'protocol'
p498
S'arduino'
p499
ssS'name'
p500
S'Arduino Mini w/ ATmega328'
p501
sS'build'
p502
(dp503
S'core'
p504
S'arduino'
p505
sS'mcu'
p506
S'atmega328p'
p507
sS'f_cpu'
p508
S'16000000L'
p509
sS'variant'
p510
S'eightanaloginputs'
p511
ssaa(lp512
S'mini'
p513
a(dp514
S'bootloader'
p515
(dp516
S'extended_fuses'
p517
S'0x00'
p518
sS'high_fuses'
p519
S'0xdd'
p520
sS'low_fuses'
p521
S'0xff'
p522
sS'lock_bits'
p523
S'0x0F'
p524
sS'file'
p525
S'ATmegaBOOT_168_ng.hex'
p526
sS'path'
p527
S'atmega'
p528
sS'unlock_bits'
p529
S'0x3F'
p530
ssS'upload'
p531
(dp532
S'speed'
p533
S'19200'
p534
sS'maximum_size'
p535
S'14336'
p536
sS'protocol'
p537
S'arduino'
p538
ssS'name'
p539
S'Arduino Mini w/ ATmega168'
p540
sS'build'
p541
(dp542
S'core'
p543
S'arduino'
p544
sS'mcu'
p545
S'atmega168'
p546
sS'f_cpu'
p547
S'16000000L'
p548
sS'variant'
p549
S'eightanaloginputs'
p550
ssaa(lp551
S'ethernet'
p552
a(dp553
S'bootloader'
p554
(dp555
S'extended_fuses'
p556
S'0x05'
p557
sS'high_fuses'
p558
S'0xde'
p559
sS'low_fuses'
p560
S'0xff'
p561
sS'lock_bits'
p562
S'0x0F'
p563
sS'file'
p564
S'optiboot_atmega328.hex'
p565
sS'path'
p566
S'optiboot'
p567
sS'unlock_bits'
p568
S'0x3F'
p569
ssS'upload'
p570
(dp571
S'speed'
p572
S'115200'
p573
sS'maximum_size'
p574
S'32256'
p575
sS'protocol'
p576
S'arduino'
p577
ssS'name'
p578
S'Arduino Ethernet'
p579
sS'build'
p580
(dp581
S'f_cpu'
p582
S'16000000L'
p583
sS'mcu'
p584
S'atmega328p'
p585
sS'variant'
p586
S'standard'
p587
sS'core'
p588
S'arduino'
p589
ssaa(lp590
S'fio'
p591
a(dp592
S'bootloader'
p593
(dp594
S'extended_fuses'
p595
S'0x05'
p596
sS'high_fuses'
p597
S'0xDA'
p598
sS'low_fuses'
p599
S'0xFF'
p600
sS'lock_bits'
p601
S'0x0F'
p602
sS'file'
p603
S'ATmegaBOOT_168_atmega328_pro_8MHz.hex'
p604
sS'path'
p605
S'arduino:atmega'
p606
sS'unlock_bits'
p607
S'0x3F'
p608
ssS'upload'
p609
(dp610
S'speed'
p611
S'57600'
p612
sS'maximum_size'
p613
S'30720'
p614
sS'protocol'
p615
S'arduino'
p616
ssS'name'
p617
S'Arduino Fio'
p618
sS'build'
p619
(dp620
S'core'
p621
S'arduino'
p622
sS'mcu'
p623
S'atmega328p'
p624
sS'f_cpu'
p625
S'8000000L'
p626
sS'variant'
p627
S'eightanaloginputs'
p628
ssaa(lp629
S'bt328'
p630
a(dp631
S'bootloader'
p632
(dp633
S'extended_fuses'
p634
S'0x05'
p635
sS'high_fuses'
p636
S'0xd8'
p637
sS'low_fuses'
p638
S'0xff'
p639
sS'lock_bits'
p640
S'0x0F'
p641
sS'file'
p642
S'ATmegaBOOT_168_atmega328_bt.hex'
p643
sS'path'
p644
S'bt'
p645
sS'unlock_bits'
p646
S'0x3F'
p647
ssS'upload'
p648
(dp649
S'speed'
p650
S'19200'
p651
sS'maximum_size'
p652
S'28672'
p653
sS'protocol'
p654
S'arduino'
p655
sS'disable_flushing'
p656
S'true'
p657
ssS'name'
p658
S'Arduino BT w/ ATmega328'
p659
sS'build'
p660
(dp661
S'core'
p662
S'arduino'
p663
sS'mcu'
p664
S'atmega328p'
p665
sS'f_cpu'
p666
S'16000000L'
p667
sS'variant'
p668
S'eightanaloginputs'
p669
ssaa(lp670
S'bt'
p671
a(dp672
S'bootloader'
p673
(dp674
S'extended_fuses'
p675
S'0x00'
p676
sS'high_fuses'
p677
S'0xdd'
p678
sS'low_fuses'
p679
S'0xff'
p680
sS'lock_bits'
p681
S'0x0F'
p682
sS'file'
p683
S'ATmegaBOOT_168.hex'
p684
sS'path'
p685
S'bt'
p686
sS'unlock_bits'
p687
S'0x3F'
p688
ssS'upload'
p689
(dp690
S'speed'
p691
S'19200'
p692
sS'maximum_size'
p693
S'14336'
p694
sS'protocol'
p695
S'arduino'
p696
sS'disable_flushing'
p697
S'true'
p698
ssS'name'
p699
S'Arduino BT w/ ATmega168'
p700
sS'build'
p701
(dp702
S'core'
p703
S'arduino'
p704
sS'mcu'
p705
S'atmega168'
p706
sS'f_cpu'
p707
S'16000000L'
p708
sS'variant'
p709
S'eightanaloginputs'
p710
ssaa(lp711
S'LilyPadUSB'
p712
a(dp713
S'bootloader'
p714
(dp715
S'extended_fuses'
p716
S'0xce'
p717
sS'high_fuses'
p718
S'0xd8'
p719
sS'low_fuses'
p720
S'0xff'
p721
sS'lock_bits'
p722
S'0x2F'
p723
sS'file'
p724
S'Caterina-LilyPadUSB.hex'
p725
sS'path'
p726
S'caterina-LilyPadUSB'
p727
sS'unlock_bits'
p728
S'0x3F'
p729
ssS'upload'
p730
(dp731
S'speed'
p732
S'57600'
p733
sS'maximum_size'
p734
S'28672'
p735
sS'protocol'
p736
S'avr109'
p737
sS'disable_flushing'
p738
S'true'
p739
ssS'name'
p740
S'LilyPad Arduino USB'
p741
sS'build'
p742
(dp743
S'core'
p744
S'arduino'
p745
sS'f_cpu'
p746
S'8000000L'
p747
sS'vid'
p748
S'0x1B4F'
p749
sS'pid'
p750
S'0x9208'
p751
sS'variant'
p752
S'leonardo'
p753
sS'mcu'
p754
S'atmega32u4'
p755
ssaa(lp756
S'lilypad328'
p757
a(dp758
S'bootloader'
p759
(dp760
S'extended_fuses'
p761
S'0x05'
p762
sS'high_fuses'
p763
S'0xDA'
p764
sS'low_fuses'
p765
S'0xFF'
p766
sS'lock_bits'
p767
S'0x0F'
p768
sS'file'
p769
S'ATmegaBOOT_168_atmega328_pro_8MHz.hex'
p770
sS'path'
p771
S'atmega'
p772
sS'unlock_bits'
p773
S'0x3F'
p774
ssS'upload'
p775
(dp776
S'speed'
p777
S'57600'
p778
sS'maximum_size'
p779
S'30720'
p780
sS'protocol'
p781
S'arduino'
p782
ssS'name'
p783
S'LilyPad Arduino w/ ATmega328'
p784
sS'build'
p785
(dp786
S'core'
p787
S'arduino'
p788
sS'mcu'
p789
S'atmega328p'
p790
sS'f_cpu'
p791
S'8000000L'
p792
sS'variant'
p793
S'standard'
p794
ssaa(lp795
S'lilypad'
p796
a(dp797
S'bootloader'
p798
(dp799
S'extended_fuses'
p800
S'0x00'
p801
sS'high_fuses'
p802
S'0xdd'
p803
sS'low_fuses'
p804
S'0xe2'
p805
sS'lock_bits'
p806
S'0x0F'
p807
sS'file'
p808
S'LilyPadBOOT_168.hex'
p809
sS'path'
p810
S'lilypad'
p811
sS'unlock_bits'
p812
S'0x3F'
p813
ssS'upload'
p814
(dp815
S'speed'
p816
S'19200'
p817
sS'maximum_size'
p818
S'14336'
p819
sS'protocol'
p820
S'arduino'
p821
ssS'name'
p822
S'LilyPad Arduino w/ ATmega168'
p823
sS'build'
p824
(dp825
S'core'
p826
S'arduino'
p827
sS'mcu'
p828
S'atmega168'
p829
sS'f_cpu'
p830
S'8000000L'
p831
sS'variant'
p832
S'standard'
p833
ssaa(lp834
S'pro5v328'
p835
a(dp836
S'bootloader'
p837
(dp838
S'extended_fuses'
p839
S'0x05'
p840
sS'high_fuses'
p841
S'0xDA'
p842
sS'low_fuses'
p843
S'0xFF'
p844
sS'lock_bits'
p845
S'0x0F'
p846
sS'file'
p847
S'ATmegaBOOT_168_atmega328.hex'
p848
sS'path'
p849
S'atmega'
p850
sS'unlock_bits'
p851
S'0x3F'
p852
ssS'upload'
p853
(dp854
S'speed'
p855
S'57600'
p856
sS'maximum_size'
p857
S'30720'
p858
sS'protocol'
p859
S'arduino'
p860
ssS'name'
p861
S'Arduino Pro or Pro Mini (5V, 16 MHz) w/ ATmega328'
p862
sS'build'
p863
(dp864
S'core'
p865
S'arduino'
p866
sS'mcu'
p867
S'atmega328p'
p868
sS'f_cpu'
p869
S'16000000L'
p870
sS'variant'
p871
S'standard'
p872
ssaa(lp873
S'pro5v'
p874
a(dp875
S'bootloader'
p876
(dp877
S'extended_fuses'
p878
S'0x00'
p879
sS'high_fuses'
p880
S'0xdd'
p881
sS'low_fuses'
p882
S'0xff'
p883
sS'lock_bits'
p884
S'0x0F'
p885
sS'file'
p886
S'ATmegaBOOT_168_diecimila.hex'
p887
sS'path'
p888
S'atmega'
p889
sS'unlock_bits'
p890
S'0x3F'
p891
ssS'upload'
p892
(dp893
S'speed'
p894
S'19200'
p895
sS'maximum_size'
p896
S'14336'
p897
sS'protocol'
p898
S'arduino'
p899
ssS'name'
p900
S'Arduino Pro or Pro Mini (5V, 16 MHz) w/ ATmega168'
p901
sS'build'
p902
(dp903
S'core'
p904
S'arduino'
p905
sS'mcu'
p906
S'atmega168'
p907
sS'f_cpu'
p908
S'16000000L'
p909
sS'variant'
p910
S'standard'
p911
ssaa(lp912
S'pro328'
p913
a(dp914
S'bootloader'
p915
(dp916
S'extended_fuses'
p917
S'0x05'
p918
sS'high_fuses'
p919
S'0xDA'
p920
sS'low_fuses'
p921
S'0xFF'
p922
sS'lock_bits'
p923
S'0x0F'
p924
sS'file'
p925
S'ATmegaBOOT_168_atmega328_pro_8MHz.hex'
p926
sS'path'
p927
S'atmega'
p928
sS'unlock_bits'
p929
S'0x3F'
p930
ssS'upload'
p931
(dp932
S'speed'
p933
S'57600'
p934
sS'maximum_size'
p935
S'30720'
p936
sS'protocol'
p937
S'arduino'
p938
ssS'name'
p939
S'Arduino Pro or Pro Mini (3.3V, 8 MHz) w/ ATmega328'
p940
sS'build'
p941
(dp942
S'core'
p943
S'arduino'
p944
sS'mcu'
p945
S'atmega328p'
p946
sS'f_cpu'
p947
S'8000000L'
p948
sS'variant'
p949
S'standard'
p950
ssaa(lp951
S'pro'
p952
a(dp953
S'bootloader'
p954
(dp955
S'extended_fuses'
p956
S'0x00'
p957
sS'high_fuses'
p958
S'0xdd'
p959
sS'low_fuses'
p960
S'0xc6'
p961
sS'lock_bits'
p962
S'0x0F'
p963
sS'file'
p964
S'ATmegaBOOT_168_pro_8MHz.hex'
p965
sS'path'
p966
S'atmega'
p967
sS'unlock_bits'
p968
S'0x3F'
p969
ssS'upload'
p970
(dp971
S'speed'
p972
S'19200'
p973
sS'maximum_size'
p974
S'14336'
p975
sS'protocol'
p976
S'arduino'
p977
ssS'name'
p978
S'Arduino Pro or Pro Mini (3.3V, 8 MHz) w/ ATmega168'
p979
sS'build'
p980
(dp981
S'core'
p982
S'arduino'
p983
sS'mcu'
p984
S'atmega168'
p985
sS'f_cpu'
p986
S'8000000L'
p987
sS'variant'
p988
S'standard'
p989
ssaa(lp990
S'atmega168'
p991
a(dp992
S'bootloader'
p993
(dp994
S'extended_fuses'
p995
S'0x00'
p996
sS'high_fuses'
p997
S'0xdd'
p998
sS'low_fuses'
p999
S'0xff'
p1000
sS'lock_bits'
p1001
S'0x0F'
p1002
sS'file'
p1003
S'ATmegaBOOT_168_ng.hex'
p1004
sS'path'
p1005
S'atmega'
p1006
sS'unlock_bits'
p1007
S'0x3F'
p1008
ssS'upload'
p1009
(dp1010
S'speed'
p1011
S'19200'
p1012
sS'maximum_size'
p1013
S'14336'
p1014
sS'protocol'
p1015
S'arduino'
p1016
ssS'name'
p1017
S'Arduino NG or older w/ ATmega168'
p1018
sS'build'
p1019
(dp1020
S'core'
p1021
S'arduino'
p1022
sS'mcu'
p1023
S'atmega168'
p1024
sS'f_cpu'
p1025
S'16000000L'
p1026
sS'variant'
p1027
S'standard'
p1028
ssaa(lp1029
S'atmega8'
p1030
a(dp1031
S'bootloader'
p1032
(dp1033
S'high_fuses'
p1034
S'0xca'
p1035
sS'low_fuses'
p1036
S'0xdf'
p1037
sS'lock_bits'
p1038
S'0x0F'
p1039
sS'file'
p1040
S'ATmegaBOOT-prod-firmware-2009-11-07.hex'
p1041
sS'path'
p1042
S'atmega8'
p1043
sS'unlock_bits'
p1044
S'0x3F'
p1045
ssS'upload'
p1046
(dp1047
S'speed'
p1048
S'19200'
p1049
sS'maximum_size'
p1050
S'7168'
p1051
sS'protocol'
p1052
S'arduino'
p1053
ssS'name'
p1054
S'Arduino NG or older w/ ATmega8'
p1055
sS'build'
p1056
(dp1057
S'core'
p1058
S'arduino'
p1059
sS'mcu'
p1060
S'atmega8'
p1061
sS'f_cpu'
p1062
S'16000000L'
p1063
sS'variant'
p1064
S'standard'
p1065
ssaa(lp1066
S'robotControl'
p1067
a(dp1068
S'bootloader'
p1069
(dp1070
S'extended_fuses'
p1071
S'0xcb'
p1072
sS'high_fuses'
p1073
S'0xd8'
p1074
sS'low_fuses'
p1075
S'0xff'
p1076
sS'lock_bits'
p1077
S'0x2F'
p1078
sS'file'
p1079
S'Caterina-Robot-Control.hex'
p1080
sS'path'
p1081
S'caterina-Arduino_Robot'
p1082
sS'unlock_bits'
p1083
S'0x3F'
p1084
ssS'upload'
p1085
(dp1086
S'speed'
p1087
S'57600'
p1088
sS'maximum_size'
p1089
S'28672'
p1090
sS'protocol'
p1091
S'avr109'
p1092
sS'disable_flushing'
p1093
S'true'
p1094
ssS'name'
p1095
S'Arduino Robot Control'
p1096
sS'build'
p1097
(dp1098
S'core'
p1099
S'robot'
p1100
sS'f_cpu'
p1101
S'16000000L'
p1102
sS'vid'
p1103
S'0x2341'
p1104
sS'pid'
p1105
S'0x8038'
p1106
sS'variant'
p1107
S'robot_control'
p1108
sS'mcu'
p1109
S'atmega32u4'
p1110
ssaa(lp1111
S'robotMotor'
p1112
a(dp1113
S'bootloader'
p1114
(dp1115
S'extended_fuses'
p1116
S'0xcb'
p1117
sS'high_fuses'
p1118
S'0xd8'
p1119
sS'low_fuses'
p1120
S'0xff'
p1121
sS'lock_bits'
p1122
S'0x2F'
p1123
sS'file'
p1124
S'Caterina-Robot-Motor.hex'
p1125
sS'path'
p1126
S'caterina-Arduino_Robot'
p1127
sS'unlock_bits'
p1128
S'0x3F'
p1129
ssS'upload'
p1130
(dp1131
S'speed'
p1132
S'57600'
p1133
sS'maximum_size'
p1134
S'28672'
p1135
sS'protocol'
p1136
S'avr109'
p1137
sS'disable_flushing'
p1138
S'true'
p1139
ssS'name'
p1140
S'Arduino Robot Motor'
p1141
sS'build'
p1142
(dp1143
S'core'
p1144
S'robot'
p1145
sS'f_cpu'
p1146
S'16000000L'
p1147
sS'vid'
p1148
S'0x2341'
p1149
sS'pid'
p1150
S'0x8039'
p1151
sS'variant'
p1152
S'robot_motor'
p1153
sS'mcu'
p1154
S'atmega32u4'
p1155
ssaatp1156
Rp1157
(dp1158
S'default'
p1159
S'uno'
p1160
sbtp1161
a(S'used_libs'
p1162
(lp1163
S'/Applications/Arduino.app/Contents/Resources/Java/libraries/Servo'
p1164
aS'/Applications/Arduino.app/Contents/Resources/Java/hardware/arduino/cores/arduino'
p1165
atp1166
a(S'make'
p1167
S'/Applications/Arduino.app/Contents/Resources/Java/hardware/tools/avr/bin/make'
p1168
tp1169
a(S'arduino_libraries_dir'
p1170
S'/Applications/Arduino.app/Contents/Resources/Java/libraries'
p1171
tp1172
a(S'cc'
p1173
S'/Applications/Arduino.app/Contents/Resources/Java/hardware/tools/avr/bin/avr-gcc'
p1174
tp1175
a(S'cflags'
p1176
g2
(g3
g4
(lp1177
tp1178
Rp1179
tp1180
a(S'cxxflags'
p1181
g2
(g3
g4
(lp1182
S'-fno-exceptions'
p1183
atp1184
Rp1185
tp1186
a(S'arduino_variants_dir'
p1187
S'/Applications/Arduino.app/Contents/Resources/Java/hardware/arduino/variants'
p1188
tp1189
a(S'stty'
p1190
S'/bin/stty'
p1191
tp1192
a(S'version.txt'
p1193
S'/Applications/Arduino.app/Contents/Resources/Java/lib/version.txt'
p1194
tp1195
a(S'arduino_core_dir'
p1196
g1165
tp1197
a(S'boards.txt'
p1198
S'/Applications/Arduino.app/Contents/Resources/Java/hardware/arduino/boards.txt'
p1199
tp1200
a(S'avrdude.conf'
p1201
S'/Applications/Arduino.app/Contents/Resources/Java/hardware/tools/avr/etc/avrdude.conf'
p1202
tp1203
a(S'deps'
p1204
g2
(g3
g4
(lp1205
S'.build/uno/src/dependencies.d'
p1206
aS'.build/uno/arduino/dependencies.d'
p1207
aS'.build/uno/Servo/dependencies.d'
p1208
atp1209
Rp1210
tp1211
a.